target datalayout = "e-m:e-p270:32:32-p271:32:32-p272:64:64-i64:64-i128:128-f80:128-n8:16:32:64-S128"
target triple = "x86_64-pc-linux-gnu"

%"class.llvm::MCInstrDesc" = type { i16, i16, i8, i8, i16, i8, i8, i16, i16, i64, i64 }
%"class.llvm::MCInstrInfo" = type <{ ptr, ptr, ptr, ptr, ptr, i32, [4 x i8] }>

; Function Attrs: mustprogress nounwind uwtable
define linkonce_odr hidden noundef nonnull align 8 dereferenceable(32) ptr @_ZNK4llvm11MCInstrInfo3getEj(ptr noundef nonnull align 8 dereferenceable(44) %0, i32 noundef %1) #0 comdat align 2 {
  %3 = alloca ptr, align 8
  %4 = alloca i32, align 4
  store ptr %0, ptr %3, align 8
  store i32 %1, ptr %4, align 4
  %5 = load ptr, ptr %3, align 8
  %6 = getelementptr inbounds nuw %"class.llvm::MCInstrInfo", ptr %5, i32 0, i32 0
  %7 = load ptr, ptr %6, align 8
  %8 = load i32, ptr %4, align 4
  %9 = zext i32 %8 to i64
  %10 = sub i64 0, %9
  %11 = getelementptr inbounds %"class.llvm::MCInstrDesc", ptr %7, i64 %10
  ret ptr %11
}

; Function Attrs: mustprogress nounwind uwtable
define dso_local noundef zeroext i1 @_ZNK4llvm16AArch64InstrInfo17isPTestLikeOpcodeEj(ptr noundef nonnull align 8 dereferenceable(408) %0, i32 noundef %1) #0 align 2 {
  %3 = alloca ptr, align 8
  %4 = alloca i32, align 4
  store ptr %0, ptr %3, align 8
  store i32 %1, ptr %4, align 4
  %5 = load ptr, ptr %3, align 8
  %6 = getelementptr inbounds i8, ptr %5, i64 8
  %7 = load i32, ptr %4, align 4
  %8 = call noundef nonnull align 8 dereferenceable(32) ptr @_ZNK4llvm11MCInstrInfo3getEj(ptr noundef nonnull align 8 dereferenceable(44) %6, i32 noundef %7)
  %9 = getelementptr inbounds nuw %"class.llvm::MCInstrDesc", ptr %8, i32 0, i32 10
  %10 = load i64, ptr %9, align 8
  %11 = and i64 %10, 1024
  %12 = icmp ne i64 %11, 0
  ret i1 %12
}