; Function Attrs: mustprogress nofree norecurse nosync nounwind willreturn memory(read, inaccessiblemem: none) uwtable
define dso_local noundef zeroext i1 @_ZNK4llvm16AArch64InstrInfo17isPTestLikeOpcodeEj(ptr nocapture noundef nonnull readonly align 8 dereferenceable(408) %0, i32 noundef %1) local_unnamed_addr #4 align 2 {
  %3 = getelementptr inbounds i8, ptr %0, i64 8
  %4 = load ptr, ptr %3, align 8
  %5 = zext i32 %1 to i64
  %6 = sub nsw i64 0, %5
  %7 = getelementptr inbounds %"class.llvm::MCInstrDesc", ptr %4, i64 %6, i32 10
  %8 = load i64, ptr %7, align 8
  %9 = and i64 %8, 1024
  %10 = icmp ne i64 %9, 0
  ret i1 %10
}